target datalayout = "e-m:e-p270:32:32-p271:32:32-p272:64:64-i64:64-i128:128-f80:128-n8:16:32:64-S128"
target triple = "x86_64-pc-linux-gnu"

@hf_rtps_type_object_member_id = internal global i32 0, align 4
@hf_rtps_type_object_annotation_value_d = internal global i32 0, align 4
@hf_rtps_type_object_annotation_value_16 = internal global i32 0, align 4

; Function Attrs: null_pointer_is_valid sspstrong uwtable
define internal i32 @rtps_util_add_type_annotation_usage(ptr noundef %0, ptr noundef %1, i32 noundef %2, i32 noundef %3, i32 noundef %4) #0 {
  %6 = alloca ptr, align 8
  %7 = alloca ptr, align 8
  %8 = alloca i32, align 4
  %9 = alloca i32, align 4
  %10 = alloca i32, align 4
  %11 = alloca i32, align 4
  %12 = alloca i32, align 4
  %13 = alloca i16, align 2
  store ptr %0, ptr %6, align 8
  store ptr %1, ptr %7, align 8
  store i32 %2, ptr %8, align 4
  store i32 %3, ptr %9, align 4
  store i32 %4, ptr %10, align 4
  call void @llvm.lifetime.start.p0(i64 4, ptr %11) #14
  call void @llvm.lifetime.start.p0(i64 4, ptr %12) #14
  call void @llvm.lifetime.start.p0(i64 2, ptr %13) #14
  %14 = load ptr, ptr %6, align 8
  %15 = load ptr, ptr %7, align 8
  %16 = load i32, ptr %8, align 4
  %17 = load i32, ptr %9, align 4
  %18 = load i32, ptr %10, align 4
  %19 = call i32 @rtps_util_add_type_id(ptr noundef %14, ptr noundef %15, i32 noundef %16, i32 noundef %17, i32 noundef %18, i32 noundef -1, ptr noundef null, ptr noundef null)
  store i32 %19, ptr %8, align 4
  %20 = load ptr, ptr %7, align 8
  %21 = load i32, ptr %8, align 4
  %22 = load i32, ptr %9, align 4
  %23 = call i32 @tvb_get_uint32(ptr noundef %20, i32 noundef %21, i32 noundef %22)
  store i32 %23, ptr %11, align 4
  %24 = load i32, ptr %8, align 4
  %25 = add i32 %24, 4
  store i32 %25, ptr %8, align 4
  store i32 0, ptr %12, align 4
  br label %26

26:                                               ; preds = %64, %5
  %27 = load i32, ptr %12, align 4
  %28 = load i32, ptr %11, align 4
  %29 = icmp ult i32 %27, %28
  br i1 %29, label %30, label %67

30:                                               ; preds = %26
  %31 = load ptr, ptr %6, align 8
  %32 = load i32, ptr @hf_rtps_type_object_member_id, align 4
  %33 = load ptr, ptr %7, align 8
  %34 = load i32, ptr %8, align 4
  %35 = load i32, ptr %9, align 4
  %36 = call ptr @proto_tree_add_item(ptr noundef %31, i32 noundef %32, ptr noundef %33, i32 noundef %34, i32 noundef 4, i32 noundef %35)
  %37 = load i32, ptr %8, align 4
  %38 = add i32 %37, 4
  store i32 %38, ptr %8, align 4
  %39 = load ptr, ptr %7, align 8
  %40 = load i32, ptr %8, align 4
  %41 = load i32, ptr %9, align 4
  %42 = call zeroext i16 @tvb_get_uint16(ptr noundef %39, i32 noundef %40, i32 noundef %41)
  store i16 %42, ptr %13, align 2
  %43 = load ptr, ptr %6, align 8
  %44 = load i32, ptr @hf_rtps_type_object_annotation_value_d, align 4
  %45 = load ptr, ptr %7, align 8
  %46 = load i32, ptr %8, align 4
  %47 = load i32, ptr %9, align 4
  %48 = call ptr @proto_tree_add_item(ptr noundef %43, i32 noundef %44, ptr noundef %45, i32 noundef %46, i32 noundef 2, i32 noundef %47)
  %49 = load i32, ptr %8, align 4
  %50 = add i32 %49, 2
  store i32 %50, ptr %8, align 4
  %51 = load i16, ptr %13, align 2
  %52 = zext i16 %51 to i32
  switch i32 %52, label %62 [
    i32 4, label %53
  ]

53:                                               ; preds = %30
  %54 = load ptr, ptr %6, align 8
  %55 = load i32, ptr @hf_rtps_type_object_annotation_value_16, align 4
  %56 = load ptr, ptr %7, align 8
  %57 = load i32, ptr %8, align 4
  %58 = load i32, ptr %9, align 4
  %59 = call ptr @proto_tree_add_item(ptr noundef %54, i32 noundef %55, ptr noundef %56, i32 noundef %57, i32 noundef 2, i32 noundef %58)
  %60 = load i32, ptr %8, align 4
  %61 = add i32 %60, 2
  store i32 %61, ptr %8, align 4
  br label %63

62:                                               ; preds = %30
  br label %63

63:                                               ; preds = %62, %53
  br label %64

64:                                               ; preds = %63
  %65 = load i32, ptr %12, align 4
  %66 = add i32 %65, 1
  store i32 %66, ptr %12, align 4
  br label %26, !llvm.loop !36

67:                                               ; preds = %26
  %68 = load i32, ptr %8, align 4
  call void @llvm.lifetime.end.p0(i64 2, ptr %13) #14
  call void @llvm.lifetime.end.p0(i64 4, ptr %12) #14
  call void @llvm.lifetime.end.p0(i64 4, ptr %11) #14
  ret i32 %68
}