; Function Attrs: null_pointer_is_valid sspstrong uwtable
define internal fastcc noundef i32 @rtps_util_add_type_annotation_usage(ptr noundef %0, ptr noundef %1, i32 noundef %2, i32 noundef range(i32 0, -2147483647) %3, i32 noundef %4) unnamed_addr #0 {
  %6 = tail call fastcc i32 @rtps_util_add_type_id(ptr noundef %0, ptr noundef %1, i32 noundef %2, i32 noundef %3, i32 noundef %4, i32 noundef -1, ptr noundef null, ptr noundef null)
  %7 = tail call i32 @tvb_get_uint32(ptr noundef %1, i32 noundef %6, i32 noundef %3)
  %8 = add i32 %6, 4
  %.not = icmp eq i32 %7, 0
  br i1 %.not, label %._crit_edge, label %.lr.ph

.lr.ph:                                           ; preds = %5, %20
  %.033 = phi i32 [ %.1, %20 ], [ %8, %5 ]
  %.03132 = phi i32 [ %21, %20 ], [ 0, %5 ]
  %9 = load i32, ptr @hf_rtps_type_object_member_id, align 4
  %10 = tail call ptr @proto_tree_add_item(ptr noundef %0, i32 noundef %9, ptr noundef %1, i32 noundef %.033, i32 noundef 4, i32 noundef %3)
  %11 = add i32 %.033, 4
  %12 = tail call zeroext i16 @tvb_get_uint16(ptr noundef %1, i32 noundef %11, i32 noundef %3)
  %13 = load i32, ptr @hf_rtps_type_object_annotation_value_d, align 4
  %14 = tail call ptr @proto_tree_add_item(ptr noundef %0, i32 noundef %13, ptr noundef %1, i32 noundef %11, i32 noundef 2, i32 noundef %3)
  %15 = add i32 %.033, 6
  %cond = icmp eq i16 %12, 4
  br i1 %cond, label %16, label %20

16:                                               ; preds = %.lr.ph
  %17 = load i32, ptr @hf_rtps_type_object_annotation_value_16, align 4
  %18 = tail call ptr @proto_tree_add_item(ptr noundef %0, i32 noundef %17, ptr noundef %1, i32 noundef %15, i32 noundef 2, i32 noundef %3)
  %19 = add i32 %.033, 8
  br label %20

20:                                               ; preds = %16, %.lr.ph
  %.1 = phi i32 [ %19, %16 ], [ %15, %.lr.ph ]
  %21 = add nuw i32 %.03132, 1
  %exitcond.not = icmp eq i32 %21, %7
  br i1 %exitcond.not, label %._crit_edge, label %.lr.ph, !llvm.loop !51

._crit_edge:                                      ; preds = %20, %5
  %.0.lcssa = phi i32 [ %8, %5 ], [ %.1, %20 ]
  ret i32 %.0.lcssa
}